target datalayout = "e-m:e-p270:32:32-p271:32:32-p272:64:64-i64:64-i128:128-f80:128-n8:16:32:64-S128"
target triple = "x86_64-pc-linux-gnu"

%struct.FunctionCallInfoBaseData = type { ptr, ptr, ptr, i32, i8, i16, [0 x %struct.NullableDatum] }
%struct.NullableDatum = type { i64, i8 }

@cookies = internal global ptr null, align 8
@cookies_size = internal global i32 0, align 4
@.str.1 = private unnamed_addr constant [36 x i8] c"invalid large-object descriptor: %d\00", align 1
@.str.2 = private unnamed_addr constant [13 x i8] c"be-fsstubs.c\00", align 1
@__func__.be_lo_tell64 = private unnamed_addr constant [13 x i8] c"be_lo_tell64\00", align 1

; Function Attrs: inlinehint nounwind uwtable
define internal i64 @Int64GetDatum(i64 noundef %0) #2 {
  %2 = alloca i64, align 8
  store i64 %0, ptr %2, align 8
  %3 = load i64, ptr %2, align 8
  ret i64 %3
}

; Function Attrs: inlinehint nounwind uwtable
define internal i32 @DatumGetInt32(i64 noundef %0) #2 {
  %2 = alloca i64, align 8
  store i64 %0, ptr %2, align 8
  %3 = load i64, ptr %2, align 8
  %4 = trunc i64 %3 to i32
  ret i32 %4
}

; Function Attrs: nounwind uwtable
define dso_local i64 @be_lo_tell64(ptr noundef %0) #0 {
  %2 = alloca ptr, align 8
  %3 = alloca i32, align 4
  %4 = alloca i64, align 8
  store ptr %0, ptr %2, align 8
  call void @llvm.lifetime.start.p0(i64 4, ptr %3) #8
  %5 = load ptr, ptr %2, align 8
  %6 = getelementptr inbounds nuw %struct.FunctionCallInfoBaseData, ptr %5, i32 0, i32 6
  %7 = getelementptr inbounds [0 x %struct.NullableDatum], ptr %6, i64 0, i64 0
  %8 = getelementptr inbounds nuw %struct.NullableDatum, ptr %7, i32 0, i32 0
  %9 = load i64, ptr %8, align 8
  %10 = call i32 @DatumGetInt32(i64 noundef %9)
  store i32 %10, ptr %3, align 4
  call void @llvm.lifetime.start.p0(i64 8, ptr %4) #8
  %11 = load i32, ptr %3, align 4
  %12 = icmp slt i32 %11, 0
  br i1 %12, label %24, label %13

13:                                               ; preds = %1
  %14 = load i32, ptr %3, align 4
  %15 = load i32, ptr @cookies_size, align 4
  %16 = icmp sge i32 %14, %15
  br i1 %16, label %24, label %17

17:                                               ; preds = %13
  %18 = load ptr, ptr @cookies, align 8
  %19 = load i32, ptr %3, align 4
  %20 = sext i32 %19 to i64
  %21 = getelementptr inbounds ptr, ptr %18, i64 %20
  %22 = load ptr, ptr %21, align 8
  %23 = icmp eq ptr %22, null
  br i1 %23, label %24, label %37

24:                                               ; preds = %17, %13, %1
  br label %25

25:                                               ; preds = %24
  br i1 true, label %26, label %28

26:                                               ; preds = %25
  %27 = call zeroext i1 @errstart_cold(i32 noundef 21, ptr noundef null) #9
  br i1 %27, label %30, label %34

28:                                               ; preds = %25
  %29 = call zeroext i1 @errstart(i32 noundef 21, ptr noundef null)
  br i1 %29, label %30, label %34

30:                                               ; preds = %28, %26
  %31 = call i32 @errcode(i32 noundef 67137668)
  %32 = load i32, ptr %3, align 4
  %33 = call i32 (ptr, ...) @errmsg(ptr noundef @.str.1, i32 noundef %32)
  call void @errfinish(ptr noundef @.str.2, i32 noundef 306, ptr noundef @__func__.be_lo_tell64)
  br label %34

34:                                               ; preds = %30, %28, %26
  unreachable

35:                                               ; No predecessors!
  br label %36

36:                                               ; preds = %35
  br label %37

37:                                               ; preds = %36, %17
  %38 = load ptr, ptr @cookies, align 8
  %39 = load i32, ptr %3, align 4
  %40 = sext i32 %39 to i64
  %41 = getelementptr inbounds ptr, ptr %38, i64 %40
  %42 = load ptr, ptr %41, align 8
  %43 = call i64 @inv_tell(ptr noundef %42)
  store i64 %43, ptr %4, align 8
  %44 = load i64, ptr %4, align 8
  %45 = call i64 @Int64GetDatum(i64 noundef %44)
  call void @llvm.lifetime.end.p0(i64 8, ptr %4) #8
  call void @llvm.lifetime.end.p0(i64 4, ptr %3) #8
  ret i64 %45
}